; Function Attrs: nounwind uwtable
define ptr @l___private_Lean_Elab_PreDefinition_PartialFixpoint_Induction_0__Lean_Elab_PartialFixpoint_numberNames___lambda__1(ptr noundef %0, ptr noundef %1, ptr noundef %2) local_unnamed_addr #0 {
  %4 = ptrtoint ptr %0 to i64
  %5 = and i64 %4, 1
  %.not = icmp eq i64 %5, 0
  br i1 %.not, label %lean_nat_eq.exit, label %6, !prof !13

6:                                                ; preds = %3
  %7 = icmp eq ptr %0, inttoptr (i64 3 to ptr)
  br i1 %7, label %48, label %9

lean_nat_eq.exit:                                 ; preds = %3
  %8 = tail call zeroext i1 @lean_nat_big_eq(ptr noundef %0, ptr noundef nonnull inttoptr (i64 3 to ptr)) #6
  br i1 %8, label %48, label %9

9:                                                ; preds = %6, %lean_nat_eq.exit
  %10 = load ptr, ptr @l_Lean_Elab_PartialFixpoint_mkAdmProj___lambda__2___closed__3, align 8, !tbaa !9
  %11 = tail call ptr @lean_string_append(ptr noundef %10, ptr noundef %1) #6
  %12 = ptrtoint ptr %1 to i64
  %13 = and i64 %12, 1
  %.not28 = icmp eq i64 %13, 0
  br i1 %.not28, label %14, label %lean_dec.exit22

14:                                               ; preds = %9
  %15 = load i32, ptr %1, align 4, !tbaa !4
  %16 = icmp sgt i32 %15, 1
  br i1 %16, label %17, label %19, !prof !14

17:                                               ; preds = %14
  %18 = add nsw i32 %15, -1
  store i32 %18, ptr %1, align 4, !tbaa !4
  br label %lean_dec.exit22

19:                                               ; preds = %14
  %.not.i = icmp eq i32 %15, 0
  br i1 %.not.i, label %lean_dec.exit22, label %20

20:                                               ; preds = %19
  tail call void @lean_dec_ref_cold(ptr noundef nonnull %1) #6
  br label %lean_dec.exit22

lean_dec.exit22:                                  ; preds = %20, %19, %17, %9
  %21 = load ptr, ptr @l___private_Lean_Elab_PreDefinition_PartialFixpoint_Induction_0__Lean_Elab_PartialFixpoint_numberNames___lambda__1___closed__1, align 8, !tbaa !9
  %22 = tail call ptr @lean_string_append(ptr noundef %11, ptr noundef %21) #6
  %23 = ptrtoint ptr %2 to i64
  %24 = and i64 %23, 1
  %.not29 = icmp eq i64 %24, 0
  br i1 %.not29, label %.critedge.i, label %25, !prof !13

25:                                               ; preds = %lean_dec.exit22
  %26 = lshr i64 %23, 1
  %27 = add nuw i64 %26, 1
  %28 = icmp sgt i64 %27, -1
  br i1 %28, label %29, label %33, !prof !14

29:                                               ; preds = %25
  %30 = shl nuw i64 %27, 1
  %31 = or disjoint i64 %30, 1
  %32 = inttoptr i64 %31 to ptr
  br label %lean_nat_add.exit

33:                                               ; preds = %25
  %34 = tail call ptr @lean_big_usize_to_nat(i64 noundef range(i64 0, -1) %27) #6
  br label %lean_nat_add.exit

.critedge.i:                                      ; preds = %lean_dec.exit22
  %35 = tail call ptr @lean_nat_big_add(ptr noundef %2, ptr noundef nonnull inttoptr (i64 3 to ptr)) #6
  br label %lean_nat_add.exit

lean_nat_add.exit:                                ; preds = %33, %29, %.critedge.i
  %.0.i = phi ptr [ %35, %.critedge.i ], [ %32, %29 ], [ %34, %33 ]
  %36 = tail call ptr @l___private_Init_Data_Repr_0__Nat_reprFast(ptr noundef %.0.i) #6
  %37 = tail call ptr @lean_string_append(ptr noundef %22, ptr noundef %36) #6
  %38 = ptrtoint ptr %36 to i64
  %39 = and i64 %38, 1
  %.not30 = icmp eq i64 %39, 0
  br i1 %.not30, label %40, label %lean_dec.exit

40:                                               ; preds = %lean_nat_add.exit
  %41 = load i32, ptr %36, align 4, !tbaa !4
  %42 = icmp sgt i32 %41, 1
  br i1 %42, label %43, label %45, !prof !14

43:                                               ; preds = %40
  %44 = add nsw i32 %41, -1
  store i32 %44, ptr %36, align 4, !tbaa !4
  br label %lean_dec.exit

45:                                               ; preds = %40
  %.not.i23 = icmp eq i32 %41, 0
  br i1 %.not.i23, label %lean_dec.exit, label %46

46:                                               ; preds = %45
  tail call void @lean_dec_ref_cold(ptr noundef nonnull %36) #6
  br label %lean_dec.exit

lean_dec.exit:                                    ; preds = %46, %45, %43, %lean_nat_add.exit
  %47 = tail call ptr @lean_string_append(ptr noundef %37, ptr noundef %10) #6
  br label %48

48:                                               ; preds = %lean_nat_eq.exit, %6, %lean_dec.exit
  %.sink = phi ptr [ %47, %lean_dec.exit ], [ %1, %6 ], [ %1, %lean_nat_eq.exit ]
  %49 = tail call ptr @l_Lean_Name_str___override(ptr noundef nonnull inttoptr (i64 1 to ptr), ptr noundef %.sink) #6
  ret ptr %49
}